target datalayout = "e-m:e-p270:32:32-p271:32:32-p272:64:64-i64:64-i128:128-f80:128-n8:16:32:64-S128"
target triple = "x86_64-pc-linux-gnu"

%struct.jpeg_decompress_struct = type { ptr, ptr, ptr, ptr, i32, i32, ptr, i32, i32, i32, i32, i32, i32, i32, double, i32, i32, i32, i32, i32, i32, i32, i32, i32, i32, i32, i32, i32, i32, i32, i32, i32, i32, ptr, i32, i32, i32, i32, i32, ptr, [4 x ptr], [4 x ptr], [4 x ptr], i32, ptr, i32, i32, [16 x i8], [16 x i8], [16 x i8], i32, i32, i8, i8, i8, i16, i16, i32, i8, i32, ptr, i32, i32, i32, i32, ptr, i32, [4 x ptr], i32, i32, i32, [10 x i32], i32, i32, i32, i32, i32, ptr, ptr, ptr, ptr, ptr, ptr, ptr, ptr, ptr, ptr, ptr }
%struct.ppm_dest_struct = type { %struct.djpeg_dest_struct, ptr, ptr, i64, i32 }
%struct.djpeg_dest_struct = type { ptr, ptr, ptr, ptr, ptr, ptr, ptr, ptr, i32 }

; Function Attrs: nounwind uwtable
define internal void @put_demapped_gray(ptr noundef %0, ptr noundef %1, i32 noundef %2) #0 {
  %4 = alloca ptr, align 8
  %5 = alloca ptr, align 8
  %6 = alloca i32, align 4
  %7 = alloca ptr, align 8
  %8 = alloca ptr, align 8
  %9 = alloca ptr, align 8
  %10 = alloca ptr, align 8
  %11 = alloca i32, align 4
  store ptr %0, ptr %4, align 8, !tbaa !4
  store ptr %1, ptr %5, align 8, !tbaa !61
  store i32 %2, ptr %6, align 4, !tbaa !68
  call void @llvm.lifetime.start.p0(i64 8, ptr %7) #6
  %12 = load ptr, ptr %5, align 8, !tbaa !61
  store ptr %12, ptr %7, align 8, !tbaa !42
  call void @llvm.lifetime.start.p0(i64 8, ptr %8) #6
  call void @llvm.lifetime.start.p0(i64 8, ptr %9) #6
  call void @llvm.lifetime.start.p0(i64 8, ptr %10) #6
  %13 = load ptr, ptr %4, align 8, !tbaa !4
  %14 = getelementptr inbounds nuw %struct.jpeg_decompress_struct, ptr %13, i32 0, i32 33
  %15 = load ptr, ptr %14, align 8, !tbaa !73
  %16 = getelementptr inbounds ptr, ptr %15, i64 0
  %17 = load ptr, ptr %16, align 8, !tbaa !69
  store ptr %17, ptr %10, align 8, !tbaa !69
  call void @llvm.lifetime.start.p0(i64 4, ptr %11) #6
  %18 = load ptr, ptr %7, align 8, !tbaa !42
  %19 = getelementptr inbounds nuw %struct.ppm_dest_struct, ptr %18, i32 0, i32 0
  %20 = getelementptr inbounds nuw %struct.djpeg_dest_struct, ptr %19, i32 0, i32 5
  %21 = load ptr, ptr %20, align 8, !tbaa !57
  %22 = getelementptr inbounds ptr, ptr %21, i64 0
  %23 = load ptr, ptr %22, align 8, !tbaa !69
  store ptr %23, ptr %9, align 8, !tbaa !69
  %24 = load ptr, ptr %7, align 8, !tbaa !42
  %25 = getelementptr inbounds nuw %struct.ppm_dest_struct, ptr %24, i32 0, i32 1
  %26 = load ptr, ptr %25, align 8, !tbaa !51
  store ptr %26, ptr %8, align 8, !tbaa !69
  %27 = load ptr, ptr %4, align 8, !tbaa !4
  %28 = getelementptr inbounds nuw %struct.jpeg_decompress_struct, ptr %27, i32 0, i32 27
  %29 = load i32, ptr %28, align 8, !tbaa !55
  store i32 %29, ptr %11, align 4, !tbaa !68
  br label %30

30:                                               ; preds = %43, %3
  %31 = load i32, ptr %11, align 4, !tbaa !68
  %32 = icmp ugt i32 %31, 0
  br i1 %32, label %33, label %46

33:                                               ; preds = %30
  %34 = load ptr, ptr %10, align 8, !tbaa !69
  %35 = load ptr, ptr %9, align 8, !tbaa !69
  %36 = getelementptr inbounds nuw i8, ptr %35, i32 1
  store ptr %36, ptr %9, align 8, !tbaa !69
  %37 = load i8, ptr %35, align 1, !tbaa !37
  %38 = zext i8 %37 to i64
  %39 = getelementptr inbounds nuw i8, ptr %34, i64 %38
  %40 = load i8, ptr %39, align 1, !tbaa !37
  %41 = load ptr, ptr %8, align 8, !tbaa !69
  %42 = getelementptr inbounds nuw i8, ptr %41, i32 1
  store ptr %42, ptr %8, align 8, !tbaa !69
  store i8 %40, ptr %41, align 1, !tbaa !37
  br label %43

43:                                               ; preds = %33
  %44 = load i32, ptr %11, align 4, !tbaa !68
  %45 = add i32 %44, -1
  store i32 %45, ptr %11, align 4, !tbaa !68
  br label %30, !llvm.loop !74

46:                                               ; preds = %30
  %47 = load ptr, ptr %7, align 8, !tbaa !42
  %48 = getelementptr inbounds nuw %struct.ppm_dest_struct, ptr %47, i32 0, i32 1
  %49 = load ptr, ptr %48, align 8, !tbaa !51
  %50 = load ptr, ptr %7, align 8, !tbaa !42
  %51 = getelementptr inbounds nuw %struct.ppm_dest_struct, ptr %50, i32 0, i32 3
  %52 = load i64, ptr %51, align 8, !tbaa !50
  %53 = load ptr, ptr %7, align 8, !tbaa !42
  %54 = getelementptr inbounds nuw %struct.ppm_dest_struct, ptr %53, i32 0, i32 0
  %55 = getelementptr inbounds nuw %struct.djpeg_dest_struct, ptr %54, i32 0, i32 4
  %56 = load ptr, ptr %55, align 8, !tbaa !63
  %57 = call i64 @fwrite(ptr noundef %49, i64 noundef 1, i64 noundef %52, ptr noundef %56)
  call void @llvm.lifetime.end.p0(i64 4, ptr %11) #6
  call void @llvm.lifetime.end.p0(i64 8, ptr %10) #6
  call void @llvm.lifetime.end.p0(i64 8, ptr %9) #6
  call void @llvm.lifetime.end.p0(i64 8, ptr %8) #6
  call void @llvm.lifetime.end.p0(i64 8, ptr %7) #6
  ret void
}